; Function Attrs: mustprogress nofree norecurse nosync nounwind willreturn memory(read, inaccessiblemem: none) uwtable
define hidden noundef i32 @_ZN2dd11pdd_manager4readEj(ptr noundef nonnull readonly align 8 captures(none) dereferenceable(952) %0, i32 noundef %1) local_unnamed_addr #15 align 2 {
  %3 = getelementptr inbounds nuw i8, ptr %0, i64 112
  %4 = load ptr, ptr %3, align 8, !tbaa !53
  %5 = icmp eq ptr %4, null
  br i1 %5, label %_ZNK6vectorIjLb0EjE4sizeEv.exit, label %6

6:                                                ; preds = %2
  %7 = getelementptr inbounds i8, ptr %4, i64 -4
  %8 = load i32, ptr %7, align 4, !tbaa !83
  br label %_ZNK6vectorIjLb0EjE4sizeEv.exit

_ZNK6vectorIjLb0EjE4sizeEv.exit:                  ; preds = %2, %6
  %.0.i = phi i32 [ %8, %6 ], [ 0, %2 ]
  %9 = sub i32 %.0.i, %1
  %10 = zext i32 %9 to i64
  %11 = getelementptr inbounds nuw i32, ptr %4, i64 %10
  %12 = load i32, ptr %11, align 4, !tbaa !83
  ret i32 %12
}